-----BEGIN PRIVATE KEY-----
MIIBVAIBADANBgkqhkiG9w0BAQEFAASCAT4wggE6AgEAAkEA1ZloHnJ3UASdHMwf
MgUNx/6nMYJNTLMmvzOEsj5/7YIkkElj6Hx6MykPu96ov1a9valI9xe1prX1ZDL1
gxBqGQIDAQABAkB7hw101kP0DccC2XWNCukuaTIt6qpjmhPlbZjnMEfxhUwRKPD0
Ni3iCcR6imyOkincFoW/dtqK2sAzNU47QVEBAiEA+yG1zo/VNukkMYdn9Lz1lnnF
d4vnYmj1lQaNyIhftmECIQDZvW88qo6KfHhkdfnEAPu0ntKFYlKobh/x0qtRu65e
uQIgfNIOiXLYKQjMYonI084vyvEPgxHYmgNNPRsa0bdmy0ECIQC04naCg34e9gBe
FNQFTHvONRLW1DOu0K2hC05fe/cDoQIgB74nib5vB88ExUINRaLCVA8dtU4fmExJ
UbqpePPAQrM=
-----END PRIVATE KEY-----
Certificate:
    Data:
        Version: 3 (0x2)
        Serial Number: 10311955402435042588 (0x8f1b6ccdadcf9d1c)
    Signature Algorithm: sha256WithRSAEncryption
        Issuer: CN=localhost
        Validity
            Not Before: Mar  2 19:14:47 2016 GMT
            Not After : Feb  7 19:14:47 2116 GMT
        Subject: CN=localhost
        Subject Public Key Info:
            Public Key Algorithm: rsaEncryption
                Public-Key: (512 bit)
                Modulus:
                    00:d5:99:68:1e:72:77:50:04:9d:1c:cc:1f:32:05:
                    0d:c7:fe:a7:31:82:4d:4c:b3:26:bf:33:84:b2:3e:
                    7f:ed:82:24:90:49:63:e8:7c:7a:33:29:0f:bb:de:
                    a8:bf:56:bd:bd:a9:48:f7:17:b5:a6:b5:f5:64:32:
                    f5:83:10:6a:19
                Exponent: 65537 (0x10001)
        X509v3 extensions:
            X509v3 Subject Alternative Name: 
                DNS:localhost
    Signature Algorithm: sha256WithRSAEncryption
         c3:61:52:0c:b9:f1:3b:5d:8c:e4:a9:4e:a5:13:cf:5e:62:ff:
         a3:69:26:2d:e2:5a:34:1a:32:bd:b0:80:74:16:28:58:50:7a:
         8a:9c:83:06:35:dd:73:45:41:ae:38:e7:59:0b:31:43:fc:86:
         ee:ef:6d:b6:0e:04:fa:13:f5:70
-----BEGIN CERTIFICATE-----
MIIBOjCB5aADAgECAgkAjxtsza3PnRwwDQYJKoZIhvcNAQELBQAwFDESMBAGA1UE
AwwJbG9jYWxob3N0MCAXDTE2MDMwMjE5MTQ0N1oYDzIxMTYwMjA3MTkxNDQ3WjAU
MRIwEAYDVQQDDAlsb2NhbGhvc3QwXDANBgkqhkiG9w0BAQEFAANLADBIAkEA1Zlo
HnJ3UASdHMwfMgUNx/6nMYJNTLMmvzOEsj5/7YIkkElj6Hx6MykPu96ov1a9valI
9xe1prX1ZDL1gxBqGQIDAQABoxgwFjAUBgNVHREEDTALgglsb2NhbGhvc3QwDQYJ
KoZIhvcNAQELBQADQQDDYVIMufE7XYzkqU6lE89eYv+jaSYt4lo0GjK9sIB0FihY
UHqKnIMGNd1zRUGuOOdZCzFD/Ibu7222DgT6E/Vw
-----END CERTIFICATE-----
